target datalayout = "e-m:e-p270:32:32-p271:32:32-p272:64:64-i64:64-i128:128-f80:128-n8:16:32:64-S128"
target triple = "x86_64-unknown-linux-gnu"

; Function Attrs: mustprogress nounwind uwtable
define linkonce_odr dso_local noundef ptr @_ZN6snappy6Varint16Parse32WithLimitEPKcS2_Pj(ptr noundef %p, ptr noundef %l, ptr noundef %OUTPUT) #0 comdat align 2 {
entry:
  %retval = alloca ptr, align 8
  %p.addr = alloca ptr, align 8
  %l.addr = alloca ptr, align 8
  %OUTPUT.addr = alloca ptr, align 8
  %ptr = alloca ptr, align 8
  %limit = alloca ptr, align 8
  %b = alloca i32, align 4
  %result = alloca i32, align 4
  store ptr %p, ptr %p.addr, align 8
  store ptr %l, ptr %l.addr, align 8
  store ptr %OUTPUT, ptr %OUTPUT.addr, align 8
  %0 = load ptr, ptr %p.addr, align 8
  store ptr %0, ptr %ptr, align 8
  %1 = load ptr, ptr %l.addr, align 8
  store ptr %1, ptr %limit, align 8
  %2 = load ptr, ptr %ptr, align 8
  %3 = load ptr, ptr %limit, align 8
  %cmp = icmp uge ptr %2, %3
  br i1 %cmp, label %if.then, label %if.end

if.then:                                          ; preds = %entry
  store ptr null, ptr %retval, align 8
  br label %return

if.end:                                           ; preds = %entry
  %4 = load ptr, ptr %ptr, align 8
  %incdec.ptr = getelementptr inbounds i8, ptr %4, i32 1
  store ptr %incdec.ptr, ptr %ptr, align 8
  %5 = load i8, ptr %4, align 1
  %conv = zext i8 %5 to i32
  store i32 %conv, ptr %b, align 4
  %6 = load i32, ptr %b, align 4
  %and = and i32 %6, 127
  store i32 %and, ptr %result, align 4
  %7 = load i32, ptr %b, align 4
  %cmp1 = icmp ult i32 %7, 128
  br i1 %cmp1, label %if.then2, label %if.end3

if.then2:                                         ; preds = %if.end
  br label %done

if.end3:                                          ; preds = %if.end
  %8 = load ptr, ptr %ptr, align 8
  %9 = load ptr, ptr %limit, align 8
  %cmp4 = icmp uge ptr %8, %9
  br i1 %cmp4, label %if.then5, label %if.end6

if.then5:                                         ; preds = %if.end3
  store ptr null, ptr %retval, align 8
  br label %return

if.end6:                                          ; preds = %if.end3
  %10 = load ptr, ptr %ptr, align 8
  %incdec.ptr7 = getelementptr inbounds i8, ptr %10, i32 1
  store ptr %incdec.ptr7, ptr %ptr, align 8
  %11 = load i8, ptr %10, align 1
  %conv8 = zext i8 %11 to i32
  store i32 %conv8, ptr %b, align 4
  %12 = load i32, ptr %b, align 4
  %and9 = and i32 %12, 127
  %shl = shl i32 %and9, 7
  %13 = load i32, ptr %result, align 4
  %or = or i32 %13, %shl
  store i32 %or, ptr %result, align 4
  %14 = load i32, ptr %b, align 4
  %cmp10 = icmp ult i32 %14, 128
  br i1 %cmp10, label %if.then11, label %if.end12

if.then11:                                        ; preds = %if.end6
  br label %done

if.end12:                                         ; preds = %if.end6
  %15 = load ptr, ptr %ptr, align 8
  %16 = load ptr, ptr %limit, align 8
  %cmp13 = icmp uge ptr %15, %16
  br i1 %cmp13, label %if.then14, label %if.end15

if.then14:                                        ; preds = %if.end12
  store ptr null, ptr %retval, align 8
  br label %return

if.end15:                                         ; preds = %if.end12
  %17 = load ptr, ptr %ptr, align 8
  %incdec.ptr16 = getelementptr inbounds i8, ptr %17, i32 1
  store ptr %incdec.ptr16, ptr %ptr, align 8
  %18 = load i8, ptr %17, align 1
  %conv17 = zext i8 %18 to i32
  store i32 %conv17, ptr %b, align 4
  %19 = load i32, ptr %b, align 4
  %and18 = and i32 %19, 127
  %shl19 = shl i32 %and18, 14
  %20 = load i32, ptr %result, align 4
  %or20 = or i32 %20, %shl19
  store i32 %or20, ptr %result, align 4
  %21 = load i32, ptr %b, align 4
  %cmp21 = icmp ult i32 %21, 128
  br i1 %cmp21, label %if.then22, label %if.end23

if.then22:                                        ; preds = %if.end15
  br label %done

if.end23:                                         ; preds = %if.end15
  %22 = load ptr, ptr %ptr, align 8
  %23 = load ptr, ptr %limit, align 8
  %cmp24 = icmp uge ptr %22, %23
  br i1 %cmp24, label %if.then25, label %if.end26

if.then25:                                        ; preds = %if.end23
  store ptr null, ptr %retval, align 8
  br label %return

if.end26:                                         ; preds = %if.end23
  %24 = load ptr, ptr %ptr, align 8
  %incdec.ptr27 = getelementptr inbounds i8, ptr %24, i32 1
  store ptr %incdec.ptr27, ptr %ptr, align 8
  %25 = load i8, ptr %24, align 1
  %conv28 = zext i8 %25 to i32
  store i32 %conv28, ptr %b, align 4
  %26 = load i32, ptr %b, align 4
  %and29 = and i32 %26, 127
  %shl30 = shl i32 %and29, 21
  %27 = load i32, ptr %result, align 4
  %or31 = or i32 %27, %shl30
  store i32 %or31, ptr %result, align 4
  %28 = load i32, ptr %b, align 4
  %cmp32 = icmp ult i32 %28, 128
  br i1 %cmp32, label %if.then33, label %if.end34

if.then33:                                        ; preds = %if.end26
  br label %done

if.end34:                                         ; preds = %if.end26
  %29 = load ptr, ptr %ptr, align 8
  %30 = load ptr, ptr %limit, align 8
  %cmp35 = icmp uge ptr %29, %30
  br i1 %cmp35, label %if.then36, label %if.end37

if.then36:                                        ; preds = %if.end34
  store ptr null, ptr %retval, align 8
  br label %return

if.end37:                                         ; preds = %if.end34
  %31 = load ptr, ptr %ptr, align 8
  %incdec.ptr38 = getelementptr inbounds i8, ptr %31, i32 1
  store ptr %incdec.ptr38, ptr %ptr, align 8
  %32 = load i8, ptr %31, align 1
  %conv39 = zext i8 %32 to i32
  store i32 %conv39, ptr %b, align 4
  %33 = load i32, ptr %b, align 4
  %and40 = and i32 %33, 127
  %shl41 = shl i32 %and40, 28
  %34 = load i32, ptr %result, align 4
  %or42 = or i32 %34, %shl41
  store i32 %or42, ptr %result, align 4
  %35 = load i32, ptr %b, align 4
  %cmp43 = icmp ult i32 %35, 16
  br i1 %cmp43, label %if.then44, label %if.end45

if.then44:                                        ; preds = %if.end37
  br label %done

if.end45:                                         ; preds = %if.end37
  store ptr null, ptr %retval, align 8
  br label %return

done:                                             ; preds = %if.then44, %if.then33, %if.then22, %if.then11, %if.then2
  %36 = load i32, ptr %result, align 4
  %37 = load ptr, ptr %OUTPUT.addr, align 8
  store i32 %36, ptr %37, align 4
  %38 = load ptr, ptr %ptr, align 8
  store ptr %38, ptr %retval, align 8
  br label %return

return:                                           ; preds = %done, %if.end45, %if.then36, %if.then25, %if.then14, %if.then5, %if.then
  %39 = load ptr, ptr %retval, align 8
  ret ptr %39
}

; Function Attrs: mustprogress nounwind uwtable
define dso_local noundef zeroext i1 @_ZN6snappy21GetUncompressedLengthEPKcmPm(ptr noundef %start, i64 noundef %n, ptr noundef %result) #0 {
entry:
  %retval = alloca i1, align 1
  %start.addr = alloca ptr, align 8
  %n.addr = alloca i64, align 8
  %result.addr = alloca ptr, align 8
  %v = alloca i32, align 4
  %limit = alloca ptr, align 8
  store ptr %start, ptr %start.addr, align 8
  store i64 %n, ptr %n.addr, align 8
  store ptr %result, ptr %result.addr, align 8
  store i32 0, ptr %v, align 4
  %0 = load ptr, ptr %start.addr, align 8
  %1 = load i64, ptr %n.addr, align 8
  %add.ptr = getelementptr inbounds i8, ptr %0, i64 %1
  store ptr %add.ptr, ptr %limit, align 8
  %2 = load ptr, ptr %start.addr, align 8
  %3 = load ptr, ptr %limit, align 8
  %call = call noundef ptr @_ZN6snappy6Varint16Parse32WithLimitEPKcS2_Pj(ptr noundef %2, ptr noundef %3, ptr noundef %v)
  %cmp = icmp ne ptr %call, null
  br i1 %cmp, label %if.then, label %if.else

if.then:                                          ; preds = %entry
  %4 = load i32, ptr %v, align 4
  %conv = zext i32 %4 to i64
  %5 = load ptr, ptr %result.addr, align 8
  store i64 %conv, ptr %5, align 8
  store i1 true, ptr %retval, align 1
  br label %return

if.else:                                          ; preds = %entry
  store i1 false, ptr %retval, align 1
  br label %return

return:                                           ; preds = %if.else, %if.then
  %6 = load i1, ptr %retval, align 1
  ret i1 %6
}