; Function Attrs: mustprogress nofree norecurse nosync nounwind willreturn memory(argmem: readwrite) uwtable
define dso_local noundef zeroext i1 @_ZN6snappy21GetUncompressedLengthEPKcmPm(ptr nocapture noundef readonly %start, i64 noundef %n, ptr nocapture noundef writeonly %result) local_unnamed_addr #1 {
entry:
  %cmp.not.i = icmp sgt i64 %n, 0
  br i1 %cmp.not.i, label %if.end.i, label %return

if.end.i:                                         ; preds = %entry
  %incdec.ptr.i = getelementptr inbounds i8, ptr %start, i64 1
  %0 = load i8, ptr %start, align 1
  %1 = and i8 %0, 127
  %and.i = zext nneg i8 %1 to i32
  %cmp1.i = icmp sgt i8 %0, -1
  br i1 %cmp1.i, label %if.then, label %if.end3.i

if.end3.i:                                        ; preds = %if.end.i
  %cmp4.not.i.not = icmp eq i64 %n, 1
  br i1 %cmp4.not.i.not, label %return, label %if.end6.i

if.end6.i:                                        ; preds = %if.end3.i
  %incdec.ptr7.i = getelementptr inbounds i8, ptr %start, i64 2
  %2 = load i8, ptr %incdec.ptr.i, align 1
  %conv8.i = zext i8 %2 to i32
  %and9.i = shl nuw nsw i32 %conv8.i, 7
  %shl.i = and i32 %and9.i, 16256
  %or.i = or disjoint i32 %shl.i, %and.i
  %cmp10.i = icmp sgt i8 %2, -1
  br i1 %cmp10.i, label %if.then, label %if.end12.i

if.end12.i:                                       ; preds = %if.end6.i
  %cmp13.not.i = icmp ugt i64 %n, 2
  br i1 %cmp13.not.i, label %if.end15.i, label %return

if.end15.i:                                       ; preds = %if.end12.i
  %incdec.ptr16.i = getelementptr inbounds i8, ptr %start, i64 3
  %3 = load i8, ptr %incdec.ptr7.i, align 1
  %conv17.i = zext i8 %3 to i32
  %and18.i = shl nuw nsw i32 %conv17.i, 14
  %shl19.i = and i32 %and18.i, 2080768
  %or20.i = or disjoint i32 %shl19.i, %or.i
  %cmp21.i = icmp sgt i8 %3, -1
  br i1 %cmp21.i, label %if.then, label %if.end23.i

if.end23.i:                                       ; preds = %if.end15.i
  %cmp24.not.i.not = icmp eq i64 %n, 3
  br i1 %cmp24.not.i.not, label %return, label %if.end26.i

if.end26.i:                                       ; preds = %if.end23.i
  %incdec.ptr27.i = getelementptr inbounds i8, ptr %start, i64 4
  %4 = load i8, ptr %incdec.ptr16.i, align 1
  %conv28.i = zext i8 %4 to i32
  %and29.i = shl nuw nsw i32 %conv28.i, 21
  %shl30.i = and i32 %and29.i, 266338304
  %or31.i = or disjoint i32 %shl30.i, %or20.i
  %cmp32.i = icmp sgt i8 %4, -1
  br i1 %cmp32.i, label %if.then, label %if.end34.i

if.end34.i:                                       ; preds = %if.end26.i
  %cmp35.not.i = icmp ugt i64 %n, 4
  br i1 %cmp35.not.i, label %if.end37.i, label %return

if.end37.i:                                       ; preds = %if.end34.i
  %5 = load i8, ptr %incdec.ptr27.i, align 1
  %conv39.i = zext i8 %5 to i32
  %shl41.i = shl i32 %conv39.i, 28
  %or42.i = or disjoint i32 %shl41.i, %or31.i
  %cmp43.i = icmp ult i8 %5, 16
  br i1 %cmp43.i, label %if.then, label %return

if.then:                                          ; preds = %if.end37.i, %if.end26.i, %if.end15.i, %if.end6.i, %if.end.i
  %v.0 = phi i32 [ %and.i, %if.end.i ], [ %or.i, %if.end6.i ], [ %or20.i, %if.end15.i ], [ %or31.i, %if.end26.i ], [ %or42.i, %if.end37.i ]
  %conv = zext i32 %v.0 to i64
  store i64 %conv, ptr %result, align 8
  br label %return

return:                                           ; preds = %if.end37.i, %if.end34.i, %if.end23.i, %if.end12.i, %if.end3.i, %entry, %if.then
  %cmp.not5 = phi i1 [ true, %if.then ], [ false, %entry ], [ false, %if.end3.i ], [ false, %if.end12.i ], [ false, %if.end23.i ], [ false, %if.end34.i ], [ false, %if.end37.i ]
  ret i1 %cmp.not5
}